; Function Attrs: mustprogress uwtable
define noundef double @_ZNK8QuantLib21FrobeniusCostFunction5valueERKNS_5ArrayE(ptr noundef nonnull align 8 dereferenceable(80) %this, ptr noundef nonnull align 8 dereferenceable(16) %x) unnamed_addr #0 align 2 personality ptr @__gxx_personality_v0 {
entry:
  %temp = alloca %"class.QuantLib::Array", align 8
  call void @llvm.lifetime.start.p0(i64 16, ptr nonnull %temp) #21
  %vtable = load ptr, ptr %this, align 8, !tbaa !33
  %vfn = getelementptr inbounds i8, ptr %vtable, i64 24
  %0 = load ptr, ptr %vfn, align 8
  call void %0(ptr dead_on_unwind nonnull writable sret(%"class.QuantLib::Array") align 8 %temp, ptr noundef nonnull align 8 dereferenceable(80) %this, ptr noundef nonnull align 8 dereferenceable(16) %x)
  %call = invoke noundef double @_ZN8QuantLib10DotProductERKNS_5ArrayES2_(ptr noundef nonnull align 8 dereferenceable(16) %temp, ptr noundef nonnull align 8 dereferenceable(16) %temp)
          to label %invoke.cont unwind label %lpad

invoke.cont:                                      ; preds = %entry
  %1 = load ptr, ptr %temp, align 8, !tbaa !20
  %cmp.not.i.i = icmp eq ptr %1, null
  br i1 %cmp.not.i.i, label %_ZN8QuantLib5ArrayD2Ev.exit, label %_ZNKSt14default_deleteIA_dEclIdEENSt9enable_ifIXsr14is_convertibleIPA_T_PS0_EE5valueEvE4typeEPS4_.exit.i.i

_ZNKSt14default_deleteIA_dEclIdEENSt9enable_ifIXsr14is_convertibleIPA_T_PS0_EE5valueEvE4typeEPS4_.exit.i.i: ; preds = %invoke.cont
  call void @_ZdaPv(ptr noundef nonnull %1) #23
  br label %_ZN8QuantLib5ArrayD2Ev.exit

_ZN8QuantLib5ArrayD2Ev.exit:                      ; preds = %invoke.cont, %_ZNKSt14default_deleteIA_dEclIdEENSt9enable_ifIXsr14is_convertibleIPA_T_PS0_EE5valueEvE4typeEPS4_.exit.i.i
  call void @llvm.lifetime.end.p0(i64 16, ptr nonnull %temp) #21
  ret double %call

lpad:                                             ; preds = %entry
  %2 = landingpad { ptr, i32 }
          cleanup
  %3 = load ptr, ptr %temp, align 8, !tbaa !20
  %cmp.not.i.i1 = icmp eq ptr %3, null
  br i1 %cmp.not.i.i1, label %_ZN8QuantLib5ArrayD2Ev.exit3, label %_ZNKSt14default_deleteIA_dEclIdEENSt9enable_ifIXsr14is_convertibleIPA_T_PS0_EE5valueEvE4typeEPS4_.exit.i.i2

_ZNKSt14default_deleteIA_dEclIdEENSt9enable_ifIXsr14is_convertibleIPA_T_PS0_EE5valueEvE4typeEPS4_.exit.i.i2: ; preds = %lpad
  call void @_ZdaPv(ptr noundef nonnull %3) #23
  br label %_ZN8QuantLib5ArrayD2Ev.exit3

_ZN8QuantLib5ArrayD2Ev.exit3:                     ; preds = %lpad, %_ZNKSt14default_deleteIA_dEclIdEENSt9enable_ifIXsr14is_convertibleIPA_T_PS0_EE5valueEvE4typeEPS4_.exit.i.i2
  call void @llvm.lifetime.end.p0(i64 16, ptr nonnull %temp) #21
  resume { ptr, i32 } %2
}